EXPORTS
	?LibEntryL@@YAPAVCTestModuleBase@@XZ @ 1 NONAME ; class CTestModuleBase * __cdecl LibEntryL(void)
	?SetRequirements@@YAHAAPAVCTestModuleParam@@AAK@Z @ 2 NONAME ; int __cdecl SetRequirements(class CTestModuleParam * &,unsigned long &)
	??0COomMonitorPlugin@@QAE@XZ @ 3 NONAME ; COomMonitorPlugin::COomMonitorPlugin(void)
	?FsSession@COomMonitorPlugin@@QAEAAVRFs@@XZ @ 4 NONAME ; class RFs & COomMonitorPlugin::FsSession(void)
	?SetOomPriority@ROomMonitorSession@@QAEXW4TOomPriority@1@@Z @ 5 NONAME ; void ROomMonitorSession::SetOomPriority(enum ROomMonitorSession::TOomPriority)
	?NewL@CAppOomMonitorPlugin@@SAPAV1@VTUid@@@Z @ 6 NONAME ; class CAppOomMonitorPlugin * CAppOomMonitorPlugin::NewL(class TUid)
	?CancelRequestFreeMemory@ROomMonitorSession@@QAEXXZ @ 7 NONAME ; void ROomMonitorSession::CancelRequestFreeMemory(void)
	?CreateOOMWatcherThreadL@@YAXXZ @ 8 NONAME ; void CreateOOMWatcherThreadL(void)
	?RequestFreeMemory@ROomMonitorSession@@QAEHH@Z @ 9 NONAME ; int ROomMonitorSession::RequestFreeMemory(int)
	?ConstructL@COomMonitorPlugin@@QAEXXZ @ 10 NONAME ; void COomMonitorPlugin::ConstructL(void)
	?ExtensionInterface@COomMonitorPlugin@@MAEXVTUid@@AAPAX@Z @ 11 NONAME ; void COomMonitorPlugin::ExtensionInterface(class TUid, void * &)
	?SetMemoryMonitorTls@@YAXPAVCMemoryMonitor@@@Z @ 12 NONAME ; void SetMemoryMonitorTls(class CMemoryMonitor *)
	??1COomMonitorPlugin@@UAE@XZ @ 13 NONAME ; COomMonitorPlugin::~COomMonitorPlugin(void)
	?FreeRam@COomMonitorPluginV2@@UAEXXZ @ 14 NONAME ; void COomMonitorPluginV2::FreeRam(void)
	?RequestFreeMemory@ROomMonitorSession@@QAEXHAAVTRequestStatus@@@Z @ 15 NONAME ; void ROomMonitorSession::RequestFreeMemory(int, class TRequestStatus &)
	?WsSession@COomMonitorPlugin@@QAEAAVRWsSession@@XZ @ 16 NONAME ; class RWsSession & COomMonitorPlugin::WsSession(void)
	?RequestOptionalRam@ROomMonitorSession@@QAEHHHHAAH@Z @ 17 NONAME ; int ROomMonitorSession::RequestOptionalRam(int, int, int, int &)
	?RequestOptionalRam@ROomMonitorSession@@QAEXHHHAAVTRequestStatus@@@Z @ 18 NONAME ; void ROomMonitorSession::RequestOptionalRam(int, int, int, class TRequestStatus &)
	?ThisAppIsNotExiting@ROomMonitorSession@@QAEXH@Z @ 19 NONAME ; void ROomMonitorSession::ThisAppIsNotExiting(int)
	?Connect@ROomMonitorSession@@QAEHXZ @ 20 NONAME ; int ROomMonitorSession::Connect(void)

